target datalayout = "e-m:e-p270:32:32-p271:32:32-p272:64:64-i64:64-i128:128-f80:128-n8:16:32:64-S128"
target triple = "x86_64-unknown-linux-gnu"

%"class.sat::literal" = type { i32 }
%"class.sat::lookahead" = type { ptr, i32, %class.reslimit, %"struct.sat::lookahead::config", double, double, double, %class.svector.1, %class.svector.1, %class.svector.3, %class.vector.5, %class.svector.3, %class.svector.3, %class.vector.6, %class.svector.3, %class.small_object_allocator, %class.vector.7, %class.ptr_vector.8, %class.svector.3, i32, %class.svector.3, i32, %class.svector.3, i8, %class.svector.3, %class.vector.10, ptr, %class.svector.11, i32, i32, %class.svector.3, i32, i32, %class.vector.13, %class.svector.14, double, %class.svector.1, i32, i64, %class.svector.16, i32, %class.indexed_uint_set, i32, i32, %"struct.sat::lookahead::stats", %class.svector.18, %"struct.sat::lookahead::cube_state", i32, %class.svector.22, %class.tracked_uint_set, %"class.sat::literal", i32, i32, %"class.sat::literal", %class.vector.26, %"class.sat::literal", %class.svector.27 }
%class.reslimit = type { %"struct.std::atomic", i8, i64, i64, %class.svector, %class.ptr_vector }
%"struct.std::atomic" = type { %"struct.std::__atomic_base" }
%"struct.std::__atomic_base" = type { i32 }
%class.svector = type { %class.vector }
%class.vector = type { ptr }
%class.ptr_vector = type { %class.vector.0 }
%class.vector.0 = type { ptr }
%"struct.sat::lookahead::config" = type { double, double, double, i32, i32, i8, i32, double, i32, i32, i32, i32, i32, double, double, double, double, double }
%class.vector.5 = type { ptr }
%class.vector.6 = type { ptr }
%class.small_object_allocator = type { [32 x ptr], [32 x ptr], i64 }
%class.vector.7 = type { ptr }
%class.ptr_vector.8 = type { %class.vector.9 }
%class.vector.9 = type { ptr }
%class.vector.10 = type { ptr }
%class.svector.11 = type { %class.vector.12 }
%class.vector.12 = type { ptr }
%class.svector.3 = type { %class.vector.4 }
%class.vector.4 = type { ptr }
%class.vector.13 = type { ptr }
%class.svector.14 = type { %class.vector.15 }
%class.vector.15 = type { ptr }
%class.svector.1 = type { %class.vector.2 }
%class.vector.2 = type { ptr }
%class.svector.16 = type { %class.vector.17 }
%class.vector.17 = type { ptr }
%class.indexed_uint_set = type { i32, %class.svector.3, %class.svector.3 }
%"struct.sat::lookahead::stats" = type { i32, i32, i32, i32, i32, i32, i32, i32 }
%class.svector.18 = type { %class.vector.19 }
%class.vector.19 = type { ptr }
%"struct.sat::lookahead::cube_state" = type <{ i8, [7 x i8], %class.svector.20, %class.svector.1, double, double, i32, i32, i32, [4 x i8] }>
%class.svector.20 = type { %class.vector.21 }
%class.vector.21 = type { ptr }
%class.svector.22 = type { %class.vector.23 }
%class.vector.23 = type { ptr }
%class.tracked_uint_set = type { %class.svector.24, %class.svector.3 }
%class.svector.24 = type { %class.vector.25 }
%class.vector.25 = type { ptr }
%class.vector.26 = type { ptr }
%class.svector.27 = type { %class.vector.28 }
%class.vector.28 = type { ptr }
%"struct.sat::lookahead::candidate" = type { i32, double }
%"struct.sat::lookahead::dfs_info" = type { i32, i32, %"class.sat::literal", %"struct.sat::lookahead::arcs", i32, %"class.sat::literal", %"class.sat::literal", %"class.sat::literal" }
%"struct.sat::lookahead::arcs" = type { %class.svector.1 }

; Function Attrs: mustprogress nounwind uwtable
define linkonce_odr hidden noundef nonnull align 8 dereferenceable(40) ptr @_ZNK6vectorIN3sat9lookahead8dfs_infoELb1EjEixEj(ptr noundef nonnull align 8 dereferenceable(8) %this, i32 noundef %idx) #4 comdat align 2 {
entry:
  %this.addr = alloca ptr, align 8
  %idx.addr = alloca i32, align 4
  store ptr %this, ptr %this.addr, align 8
  store i32 %idx, ptr %idx.addr, align 4
  %this1 = load ptr, ptr %this.addr, align 8
  %m_data = getelementptr inbounds %class.vector.26, ptr %this1, i32 0, i32 0
  %0 = load ptr, ptr %m_data, align 8
  %1 = load i32, ptr %idx.addr, align 4
  %idxprom = zext i32 %1 to i64
  %arrayidx = getelementptr inbounds %"struct.sat::lookahead::dfs_info", ptr %0, i64 %idxprom
  ret ptr %arrayidx
}

; Function Attrs: mustprogress nounwind uwtable
define linkonce_odr hidden noundef i32 @_ZNK3sat7literal5indexEv(ptr noundef nonnull align 4 dereferenceable(4) %this) #4 comdat align 2 {
entry:
  %this.addr = alloca ptr, align 8
  store ptr %this, ptr %this.addr, align 8
  %this1 = load ptr, ptr %this.addr, align 8
  %m_val = getelementptr inbounds %"class.sat::literal", ptr %this1, i32 0, i32 0
  %0 = load i32, ptr %m_val, align 4
  ret i32 %0
}

; Function Attrs: mustprogress nounwind uwtable
define linkonce_odr hidden i32 @_ZN3satcoENS_7literalE(i32 %l.coerce) #4 comdat {
entry:
  %retval = alloca %"class.sat::literal", align 4
  %l = alloca %"class.sat::literal", align 4
  %coerce.dive = getelementptr inbounds %"class.sat::literal", ptr %l, i32 0, i32 0
  store i32 %l.coerce, ptr %coerce.dive, align 4
  %m_val = getelementptr inbounds %"class.sat::literal", ptr %l, i32 0, i32 0
  %0 = load i32, ptr %m_val, align 4
  %xor = xor i32 %0, 1
  %m_val1 = getelementptr inbounds %"class.sat::literal", ptr %l, i32 0, i32 0
  store i32 %xor, ptr %m_val1, align 4
  call void @llvm.memcpy.p0.p0.i64(ptr align 4 %retval, ptr align 4 %l, i64 4, i1 false)
  %coerce.dive2 = getelementptr inbounds %"class.sat::literal", ptr %retval, i32 0, i32 0
  %1 = load i32, ptr %coerce.dive2, align 4
  ret i32 %1
}

; Function Attrs: mustprogress uwtable
define linkonce_odr hidden noundef i32 @_ZNK3sat9lookahead8get_rankENS_7literalE(ptr noundef nonnull align 8 dereferenceable(1160) %this, i32 %v.coerce) #5 comdat align 2 {
entry:
  %v = alloca %"class.sat::literal", align 4
  %this.addr = alloca ptr, align 8
  %coerce.dive = getelementptr inbounds %"class.sat::literal", ptr %v, i32 0, i32 0
  store i32 %v.coerce, ptr %coerce.dive, align 4
  store ptr %this, ptr %this.addr, align 8
  %this1 = load ptr, ptr %this.addr, align 8
  %m_dfs = getelementptr inbounds %"class.sat::lookahead", ptr %this1, i32 0, i32 54
  %call = call noundef i32 @_ZNK3sat7literal5indexEv(ptr noundef nonnull align 4 dereferenceable(4) %v)
  %call2 = call noundef nonnull align 8 dereferenceable(40) ptr @_ZNK6vectorIN3sat9lookahead8dfs_infoELb1EjEixEj(ptr noundef nonnull align 8 dereferenceable(8) %m_dfs, i32 noundef %call)
  %m_rank = getelementptr inbounds %"struct.sat::lookahead::dfs_info", ptr %call2, i32 0, i32 0
  %0 = load i32, ptr %m_rank, align 8
  ret i32 %0
}

; Function Attrs: mustprogress nounwind uwtable
define linkonce_odr hidden void @_ZN3sat7literalC2Ejb(ptr noundef nonnull align 4 dereferenceable(4) %this, i32 noundef %v, i1 noundef zeroext %_sign) unnamed_addr #4 comdat align 2 {
entry:
  %this.addr = alloca ptr, align 8
  %v.addr = alloca i32, align 4
  %_sign.addr = alloca i8, align 1
  store ptr %this, ptr %this.addr, align 8
  store i32 %v, ptr %v.addr, align 4
  %frombool = zext i1 %_sign to i8
  store i8 %frombool, ptr %_sign.addr, align 1
  %this1 = load ptr, ptr %this.addr, align 8
  %m_val = getelementptr inbounds %"class.sat::literal", ptr %this1, i32 0, i32 0
  %0 = load i32, ptr %v.addr, align 4
  %shl = shl i32 %0, 1
  %1 = load i8, ptr %_sign.addr, align 1
  %tobool = trunc i8 %1 to i1
  %conv = zext i1 %tobool to i32
  %add = add i32 %shl, %conv
  store i32 %add, ptr %m_val, align 4
  ret void
}

; Function Attrs: mustprogress nounwind uwtable
define linkonce_odr hidden noundef nonnull align 8 dereferenceable(16) ptr @_ZN6vectorIN3sat9lookahead9candidateELb0EjEixEj(ptr noundef nonnull align 8 dereferenceable(8) %this, i32 noundef %idx) #4 comdat align 2 {
entry:
  %this.addr = alloca ptr, align 8
  %idx.addr = alloca i32, align 4
  store ptr %this, ptr %this.addr, align 8
  store i32 %idx, ptr %idx.addr, align 4
  %this1 = load ptr, ptr %this.addr, align 8
  %m_data = getelementptr inbounds %class.vector.23, ptr %this1, i32 0, i32 0
  %0 = load ptr, ptr %m_data, align 8
  %1 = load i32, ptr %idx.addr, align 4
  %idxprom = zext i32 %1 to i64
  %arrayidx = getelementptr inbounds %"struct.sat::lookahead::candidate", ptr %0, i64 %idxprom
  ret ptr %arrayidx
}

; Function Attrs: mustprogress nounwind uwtable
define linkonce_odr hidden noundef zeroext i1 @_ZNK3sat9lookahead12inconsistentEv(ptr noundef nonnull align 8 dereferenceable(1160) %this) #4 comdat align 2 {
entry:
  %this.addr = alloca ptr, align 8
  store ptr %this, ptr %this.addr, align 8
  %this1 = load ptr, ptr %this.addr, align 8
  %m_inconsistent = getelementptr inbounds %"class.sat::lookahead", ptr %this1, i32 0, i32 23
  %0 = load i8, ptr %m_inconsistent, align 8
  %tobool = trunc i8 %0 to i1
  ret i1 %tobool
}

; Function Attrs: mustprogress nounwind uwtable
define linkonce_odr hidden noundef i32 @_ZNK6vectorIN3sat9lookahead9candidateELb0EjE4sizeEv(ptr noundef nonnull align 8 dereferenceable(8) %this) #4 comdat align 2 {
entry:
  %retval = alloca i32, align 4
  %this.addr = alloca ptr, align 8
  store ptr %this, ptr %this.addr, align 8
  %this1 = load ptr, ptr %this.addr, align 8
  %m_data = getelementptr inbounds %class.vector.23, ptr %this1, i32 0, i32 0
  %0 = load ptr, ptr %m_data, align 8
  %cmp = icmp eq ptr %0, null
  br i1 %cmp, label %if.then, label %if.end

if.then:                                          ; preds = %entry
  store i32 0, ptr %retval, align 4
  br label %return

if.end:                                           ; preds = %entry
  %m_data2 = getelementptr inbounds %class.vector.23, ptr %this1, i32 0, i32 0
  %1 = load ptr, ptr %m_data2, align 8
  %arrayidx = getelementptr inbounds i32, ptr %1, i64 -1
  %2 = load i32, ptr %arrayidx, align 4
  store i32 %2, ptr %retval, align 4
  br label %return

return:                                           ; preds = %if.end, %if.then
  %3 = load i32, ptr %retval, align 4
  ret i32 %3
}

; Function Attrs: mustprogress uwtable
define hidden void @_ZN3sat9lookahead7get_sccEv(ptr noundef nonnull align 8 dereferenceable(1160) %this) #5 align 2 {
entry:
  %this.addr = alloca ptr, align 8
  %num_candidates = alloca i32, align 4
  %i = alloca i32, align 4
  %lit = alloca %"class.sat::literal", align 4
  %agg.tmp = alloca %"class.sat::literal", align 4
  %agg.tmp7 = alloca %"class.sat::literal", align 4
  %agg.tmp9 = alloca %"class.sat::literal", align 4
  %agg.tmp10 = alloca %"class.sat::literal", align 4
  %agg.tmp18 = alloca %"class.sat::literal", align 4
  %agg.tmp19 = alloca %"class.sat::literal", align 4
  store ptr %this, ptr %this.addr, align 8
  %this1 = load ptr, ptr %this.addr, align 8
  %m_candidates = getelementptr inbounds %"class.sat::lookahead", ptr %this1, i32 0, i32 48
  %call = call noundef i32 @_ZNK6vectorIN3sat9lookahead9candidateELb0EjE4sizeEv(ptr noundef nonnull align 8 dereferenceable(8) %m_candidates)
  store i32 %call, ptr %num_candidates, align 4
  call void @_ZN3sat9lookahead8init_sccEv(ptr noundef nonnull align 8 dereferenceable(1160) %this1)
  store i32 0, ptr %i, align 4
  br label %for.cond

for.cond:                                         ; preds = %for.inc, %entry
  %0 = load i32, ptr %i, align 4
  %1 = load i32, ptr %num_candidates, align 4
  %cmp = icmp ult i32 %0, %1
  br i1 %cmp, label %land.rhs, label %land.end

land.rhs:                                         ; preds = %for.cond
  %call2 = call noundef zeroext i1 @_ZNK3sat9lookahead12inconsistentEv(ptr noundef nonnull align 8 dereferenceable(1160) %this1)
  %lnot = xor i1 %call2, true
  br label %land.end

land.end:                                         ; preds = %land.rhs, %for.cond
  %2 = phi i1 [ false, %for.cond ], [ %lnot, %land.rhs ]
  br i1 %2, label %for.body, label %for.end

for.body:                                         ; preds = %land.end
  %m_candidates3 = getelementptr inbounds %"class.sat::lookahead", ptr %this1, i32 0, i32 48
  %3 = load i32, ptr %i, align 4
  %call4 = call noundef nonnull align 8 dereferenceable(16) ptr @_ZN6vectorIN3sat9lookahead9candidateELb0EjEixEj(ptr noundef nonnull align 8 dereferenceable(8) %m_candidates3, i32 noundef %3)
  %m_var = getelementptr inbounds %"struct.sat::lookahead::candidate", ptr %call4, i32 0, i32 0
  %4 = load i32, ptr %m_var, align 8
  call void @_ZN3sat7literalC2Ejb(ptr noundef nonnull align 4 dereferenceable(4) %lit, i32 noundef %4, i1 noundef zeroext false)
  call void @llvm.memcpy.p0.p0.i64(ptr align 4 %agg.tmp, ptr align 4 %lit, i64 4, i1 false)
  %coerce.dive = getelementptr inbounds %"class.sat::literal", ptr %agg.tmp, i32 0, i32 0
  %5 = load i32, ptr %coerce.dive, align 4
  %call5 = call noundef i32 @_ZNK3sat9lookahead8get_rankENS_7literalE(ptr noundef nonnull align 8 dereferenceable(1160) %this1, i32 %5)
  %cmp6 = icmp eq i32 %call5, 0
  br i1 %cmp6, label %if.then, label %if.end

if.then:                                          ; preds = %for.body
  call void @llvm.memcpy.p0.p0.i64(ptr align 4 %agg.tmp7, ptr align 4 %lit, i64 4, i1 false)
  %coerce.dive8 = getelementptr inbounds %"class.sat::literal", ptr %agg.tmp7, i32 0, i32 0
  %6 = load i32, ptr %coerce.dive8, align 4
  call void @_ZN3sat9lookahead7get_sccENS_7literalE(ptr noundef nonnull align 8 dereferenceable(1160) %this1, i32 %6)
  br label %if.end

if.end:                                           ; preds = %if.then, %for.body
  call void @llvm.memcpy.p0.p0.i64(ptr align 4 %agg.tmp10, ptr align 4 %lit, i64 4, i1 false)
  %coerce.dive11 = getelementptr inbounds %"class.sat::literal", ptr %agg.tmp10, i32 0, i32 0
  %7 = load i32, ptr %coerce.dive11, align 4
  %call12 = call i32 @_ZN3satcoENS_7literalE(i32 %7)
  %coerce.dive13 = getelementptr inbounds %"class.sat::literal", ptr %agg.tmp9, i32 0, i32 0
  store i32 %call12, ptr %coerce.dive13, align 4
  %coerce.dive14 = getelementptr inbounds %"class.sat::literal", ptr %agg.tmp9, i32 0, i32 0
  %8 = load i32, ptr %coerce.dive14, align 4
  %call15 = call noundef i32 @_ZNK3sat9lookahead8get_rankENS_7literalE(ptr noundef nonnull align 8 dereferenceable(1160) %this1, i32 %8)
  %cmp16 = icmp eq i32 %call15, 0
  br i1 %cmp16, label %if.then17, label %if.end24

if.then17:                                        ; preds = %if.end
  call void @llvm.memcpy.p0.p0.i64(ptr align 4 %agg.tmp19, ptr align 4 %lit, i64 4, i1 false)
  %coerce.dive20 = getelementptr inbounds %"class.sat::literal", ptr %agg.tmp19, i32 0, i32 0
  %9 = load i32, ptr %coerce.dive20, align 4
  %call21 = call i32 @_ZN3satcoENS_7literalE(i32 %9)
  %coerce.dive22 = getelementptr inbounds %"class.sat::literal", ptr %agg.tmp18, i32 0, i32 0
  store i32 %call21, ptr %coerce.dive22, align 4
  %coerce.dive23 = getelementptr inbounds %"class.sat::literal", ptr %agg.tmp18, i32 0, i32 0
  %10 = load i32, ptr %coerce.dive23, align 4
  call void @_ZN3sat9lookahead7get_sccENS_7literalE(ptr noundef nonnull align 8 dereferenceable(1160) %this1, i32 %10)
  br label %if.end24

if.end24:                                         ; preds = %if.then17, %if.end
  br label %for.inc

for.inc:                                          ; preds = %if.end24
  %11 = load i32, ptr %i, align 4
  %inc = add i32 %11, 1
  store i32 %inc, ptr %i, align 4
  br label %for.cond, !llvm.loop !16

for.end:                                          ; preds = %land.end
  ret void
}