; Function Attrs: mustprogress uwtable
define hidden void @_ZN3sat9lookahead7get_sccEv(ptr nocapture noundef nonnull align 8 dereferenceable(1160) %this) local_unnamed_addr #3 align 2 {
entry:
  %m_candidates = getelementptr inbounds i8, ptr %this, i64 1096
  %0 = load ptr, ptr %m_candidates, align 8
  %cmp.i = icmp eq ptr %0, null
  br i1 %cmp.i, label %_ZNK6vectorIN3sat9lookahead9candidateELb0EjE4sizeEv.exit.thread, label %_ZNK6vectorIN3sat9lookahead9candidateELb0EjE4sizeEv.exit

_ZNK6vectorIN3sat9lookahead9candidateELb0EjE4sizeEv.exit.thread: ; preds = %entry
  tail call void @_ZN3sat9lookahead8init_sccEv(ptr noundef nonnull align 8 dereferenceable(1160) %this)
  br label %for.end

_ZNK6vectorIN3sat9lookahead9candidateELb0EjE4sizeEv.exit: ; preds = %entry
  %arrayidx.i = getelementptr inbounds i8, ptr %0, i64 -4
  %1 = load i32, ptr %arrayidx.i, align 4
  tail call void @_ZN3sat9lookahead8init_sccEv(ptr noundef nonnull align 8 dereferenceable(1160) %this)
  %m_inconsistent.i = getelementptr inbounds i8, ptr %this, i64 832
  %cmp11.not = icmp eq i32 %1, 0
  br i1 %cmp11.not, label %for.end, label %land.rhs.lr.ph

land.rhs.lr.ph:                                   ; preds = %_ZNK6vectorIN3sat9lookahead9candidateELb0EjE4sizeEv.exit
  %m_dfs.i = getelementptr inbounds i8, ptr %this, i64 1136
  %wide.trip.count = zext i32 %1 to i64
  br label %land.rhs

land.rhs:                                         ; preds = %land.rhs.lr.ph, %for.inc
  %indvars.iv = phi i64 [ 0, %land.rhs.lr.ph ], [ %indvars.iv.next, %for.inc ]
  %2 = load i8, ptr %m_inconsistent.i, align 8
  %3 = and i8 %2, 1
  %tobool.i.not = icmp eq i8 %3, 0
  br i1 %tobool.i.not, label %for.body, label %for.end

for.body:                                         ; preds = %land.rhs
  %4 = load ptr, ptr %m_candidates, align 8
  %arrayidx.i3 = getelementptr inbounds %"struct.sat::lookahead::candidate", ptr %4, i64 %indvars.iv
  %5 = load i32, ptr %arrayidx.i3, align 8
  %shl.i = shl i32 %5, 1
  %6 = load ptr, ptr %m_dfs.i, align 8
  %idxprom.i.i = zext i32 %shl.i to i64
  %arrayidx.i.i = getelementptr inbounds %"struct.sat::lookahead::dfs_info", ptr %6, i64 %idxprom.i.i
  %7 = load i32, ptr %arrayidx.i.i, align 8
  %cmp6 = icmp eq i32 %7, 0
  br i1 %cmp6, label %if.then, label %if.end

if.then:                                          ; preds = %for.body
  tail call void @_ZN3sat9lookahead7get_sccENS_7literalE(ptr noundef nonnull align 8 dereferenceable(1160) %this, i32 %shl.i)
  %.pre = load ptr, ptr %m_dfs.i, align 8
  br label %if.end

if.end:                                           ; preds = %if.then, %for.body
  %8 = phi ptr [ %.pre, %if.then ], [ %6, %for.body ]
  %xor.i = or disjoint i32 %shl.i, 1
  %idxprom.i.i5 = zext i32 %xor.i to i64
  %arrayidx.i.i6 = getelementptr inbounds %"struct.sat::lookahead::dfs_info", ptr %8, i64 %idxprom.i.i5
  %9 = load i32, ptr %arrayidx.i.i6, align 8
  %cmp16 = icmp eq i32 %9, 0
  br i1 %cmp16, label %if.then17, label %for.inc

if.then17:                                        ; preds = %if.end
  tail call void @_ZN3sat9lookahead7get_sccENS_7literalE(ptr noundef nonnull align 8 dereferenceable(1160) %this, i32 %xor.i)
  br label %for.inc

for.inc:                                          ; preds = %if.end, %if.then17
  %indvars.iv.next = add nuw nsw i64 %indvars.iv, 1
  %exitcond.not = icmp eq i64 %indvars.iv.next, %wide.trip.count
  br i1 %exitcond.not, label %for.end, label %land.rhs, !llvm.loop !17

for.end:                                          ; preds = %land.rhs, %for.inc, %_ZNK6vectorIN3sat9lookahead9candidateELb0EjE4sizeEv.exit.thread, %_ZNK6vectorIN3sat9lookahead9candidateELb0EjE4sizeEv.exit
  ret void
}